target datalayout = "e-m:e-p270:32:32-p271:32:32-p272:64:64-i64:64-i128:128-f80:128-n8:16:32:64-S128"
target triple = "x86_64-pc-linux-gnu"

; Function Attrs: nounwind uwtable
define internal void @convolution_x(ptr noundef %0, i32 noundef %1, ptr noundef %2, ptr noundef %3, i32 noundef %4, i32 noundef %5, i64 noundef %6, i64 noundef %7) #0 {
  %9 = alloca ptr, align 8
  %10 = alloca i32, align 4
  %11 = alloca ptr, align 8
  %12 = alloca ptr, align 8
  %13 = alloca i32, align 4
  %14 = alloca i32, align 4
  %15 = alloca i64, align 8
  %16 = alloca i64, align 8
  %17 = alloca i64, align 8
  %18 = alloca i64, align 8
  %19 = alloca i32, align 4
  %20 = alloca i32, align 4
  %21 = alloca i32, align 4
  %22 = alloca i32, align 4
  %23 = alloca i32, align 4
  %24 = alloca i32, align 4
  %25 = alloca i32, align 4
  %26 = alloca i32, align 4
  %27 = alloca i32, align 4
  %28 = alloca i32, align 4
  %29 = alloca i32, align 4
  store ptr %0, ptr %9, align 8, !tbaa !26
  store i32 %1, ptr %10, align 4, !tbaa !23
  store ptr %2, ptr %11, align 8, !tbaa !26
  store ptr %3, ptr %12, align 8, !tbaa !26
  store i32 %4, ptr %13, align 4, !tbaa !23
  store i32 %5, ptr %14, align 4, !tbaa !23
  store i64 %6, ptr %15, align 8, !tbaa !30
  store i64 %7, ptr %16, align 8, !tbaa !30
  call void @llvm.lifetime.start.p0(i64 8, ptr %17) #10
  %30 = load i64, ptr %15, align 8, !tbaa !30
  %31 = udiv i64 %30, 2
  store i64 %31, ptr %17, align 8, !tbaa !30
  call void @llvm.lifetime.start.p0(i64 8, ptr %18) #10
  %32 = load i64, ptr %16, align 8, !tbaa !30
  %33 = udiv i64 %32, 2
  store i64 %33, ptr %18, align 8, !tbaa !30
  call void @llvm.lifetime.start.p0(i64 4, ptr %19) #10
  %34 = load i32, ptr %10, align 4, !tbaa !23
  %35 = sdiv i32 %34, 2
  store i32 %35, ptr %19, align 4, !tbaa !23
  call void @llvm.lifetime.start.p0(i64 4, ptr %20) #10
  %36 = load i32, ptr %19, align 4, !tbaa !23
  store i32 %36, ptr %20, align 4, !tbaa !23
  call void @llvm.lifetime.start.p0(i64 4, ptr %21) #10
  %37 = load i32, ptr %13, align 4, !tbaa !23
  %38 = load i32, ptr %10, align 4, !tbaa !23
  %39 = load i32, ptr %19, align 4, !tbaa !23
  %40 = sub nsw i32 %38, %39
  %41 = sub nsw i32 %37, %40
  store i32 %41, ptr %21, align 4, !tbaa !23
  call void @llvm.lifetime.start.p0(i64 4, ptr %22) #10
  call void @llvm.lifetime.start.p0(i64 4, ptr %23) #10
  call void @llvm.lifetime.start.p0(i64 4, ptr %24) #10
  store i32 0, ptr %22, align 4, !tbaa !23
  br label %42

42:                                               ; preds = %269, %8
  %43 = load i32, ptr %22, align 4, !tbaa !23
  %44 = load i32, ptr %14, align 4, !tbaa !23
  %45 = icmp slt i32 %43, %44
  br i1 %45, label %46, label %272

46:                                               ; preds = %42
  store i32 0, ptr %23, align 4, !tbaa !23
  br label %47

47:                                               ; preds = %125, %46
  %48 = load i32, ptr %23, align 4, !tbaa !23
  %49 = load i32, ptr %20, align 4, !tbaa !23
  %50 = icmp slt i32 %48, %49
  br i1 %50, label %51, label %128

51:                                               ; preds = %47
  call void @llvm.lifetime.start.p0(i64 4, ptr %25) #10
  store i32 0, ptr %25, align 4, !tbaa !23
  store i32 0, ptr %24, align 4, !tbaa !23
  br label %52

52:                                               ; preds = %109, %51
  %53 = load i32, ptr %24, align 4, !tbaa !23
  %54 = load i32, ptr %10, align 4, !tbaa !23
  %55 = icmp slt i32 %53, %54
  br i1 %55, label %56, label %112

56:                                               ; preds = %52
  call void @llvm.lifetime.start.p0(i64 4, ptr %26) #10
  %57 = load i32, ptr %23, align 4, !tbaa !23
  %58 = load i32, ptr %19, align 4, !tbaa !23
  %59 = sub nsw i32 %57, %58
  %60 = load i32, ptr %24, align 4, !tbaa !23
  %61 = add nsw i32 %59, %60
  %62 = icmp sge i32 %61, 0
  br i1 %62, label %63, label %69

63:                                               ; preds = %56
  %64 = load i32, ptr %23, align 4, !tbaa !23
  %65 = load i32, ptr %19, align 4, !tbaa !23
  %66 = sub nsw i32 %64, %65
  %67 = load i32, ptr %24, align 4, !tbaa !23
  %68 = add nsw i32 %66, %67
  br label %76

69:                                               ; preds = %56
  %70 = load i32, ptr %23, align 4, !tbaa !23
  %71 = load i32, ptr %19, align 4, !tbaa !23
  %72 = sub nsw i32 %70, %71
  %73 = load i32, ptr %24, align 4, !tbaa !23
  %74 = add nsw i32 %72, %73
  %75 = sub nsw i32 0, %74
  br label %76

76:                                               ; preds = %69, %63
  %77 = phi i32 [ %68, %63 ], [ %75, %69 ]
  store i32 %77, ptr %26, align 4, !tbaa !23
  %78 = load i32, ptr %26, align 4, !tbaa !23
  %79 = load i32, ptr %13, align 4, !tbaa !23
  %80 = icmp sge i32 %78, %79
  br i1 %80, label %81, label %88

81:                                               ; preds = %76
  %82 = load i32, ptr %13, align 4, !tbaa !23
  %83 = load i32, ptr %26, align 4, !tbaa !23
  %84 = load i32, ptr %13, align 4, !tbaa !23
  %85 = sub nsw i32 %83, %84
  %86 = add nsw i32 %85, 1
  %87 = sub nsw i32 %82, %86
  store i32 %87, ptr %26, align 4, !tbaa !23
  br label %88

88:                                               ; preds = %81, %76
  %89 = load ptr, ptr %9, align 8, !tbaa !26
  %90 = load i32, ptr %24, align 4, !tbaa !23
  %91 = sext i32 %90 to i64
  %92 = getelementptr inbounds i16, ptr %89, i64 %91
  %93 = load i16, ptr %92, align 2, !tbaa !36
  %94 = zext i16 %93 to i32
  %95 = load ptr, ptr %11, align 8, !tbaa !26
  %96 = load i32, ptr %22, align 4, !tbaa !23
  %97 = sext i32 %96 to i64
  %98 = load i64, ptr %17, align 8, !tbaa !30
  %99 = mul nsw i64 %97, %98
  %100 = load i32, ptr %26, align 4, !tbaa !23
  %101 = sext i32 %100 to i64
  %102 = add nsw i64 %99, %101
  %103 = getelementptr inbounds i16, ptr %95, i64 %102
  %104 = load i16, ptr %103, align 2, !tbaa !36
  %105 = zext i16 %104 to i32
  %106 = mul nsw i32 %94, %105
  %107 = load i32, ptr %25, align 4, !tbaa !23
  %108 = add nsw i32 %107, %106
  store i32 %108, ptr %25, align 4, !tbaa !23
  call void @llvm.lifetime.end.p0(i64 4, ptr %26) #10
  br label %109

109:                                              ; preds = %88
  %110 = load i32, ptr %24, align 4, !tbaa !23
  %111 = add nsw i32 %110, 1
  store i32 %111, ptr %24, align 4, !tbaa !23
  br label %52, !llvm.loop !76

112:                                              ; preds = %52
  %113 = load i32, ptr %25, align 4, !tbaa !23
  %114 = ashr i32 %113, 15
  %115 = trunc i32 %114 to i16
  %116 = load ptr, ptr %12, align 8, !tbaa !26
  %117 = load i32, ptr %22, align 4, !tbaa !23
  %118 = sext i32 %117 to i64
  %119 = load i64, ptr %18, align 8, !tbaa !30
  %120 = mul nsw i64 %118, %119
  %121 = load i32, ptr %23, align 4, !tbaa !23
  %122 = sext i32 %121 to i64
  %123 = add nsw i64 %120, %122
  %124 = getelementptr inbounds i16, ptr %116, i64 %123
  store i16 %115, ptr %124, align 2, !tbaa !36
  call void @llvm.lifetime.end.p0(i64 4, ptr %25) #10
  br label %125

125:                                              ; preds = %112
  %126 = load i32, ptr %23, align 4, !tbaa !23
  %127 = add nsw i32 %126, 1
  store i32 %127, ptr %23, align 4, !tbaa !23
  br label %47, !llvm.loop !77

128:                                              ; preds = %47
  %129 = load i32, ptr %20, align 4, !tbaa !23
  store i32 %129, ptr %23, align 4, !tbaa !23
  br label %130

130:                                              ; preds = %182, %128
  %131 = load i32, ptr %23, align 4, !tbaa !23
  %132 = load i32, ptr %21, align 4, !tbaa !23
  %133 = icmp slt i32 %131, %132
  br i1 %133, label %134, label %185

134:                                              ; preds = %130
  call void @llvm.lifetime.start.p0(i64 4, ptr %27) #10
  store i32 0, ptr %27, align 4, !tbaa !23
  store i32 0, ptr %24, align 4, !tbaa !23
  br label %135

135:                                              ; preds = %166, %134
  %136 = load i32, ptr %24, align 4, !tbaa !23
  %137 = load i32, ptr %10, align 4, !tbaa !23
  %138 = icmp slt i32 %136, %137
  br i1 %138, label %139, label %169

139:                                              ; preds = %135
  %140 = load ptr, ptr %9, align 8, !tbaa !26
  %141 = load i32, ptr %24, align 4, !tbaa !23
  %142 = sext i32 %141 to i64
  %143 = getelementptr inbounds i16, ptr %140, i64 %142
  %144 = load i16, ptr %143, align 2, !tbaa !36
  %145 = zext i16 %144 to i32
  %146 = load ptr, ptr %11, align 8, !tbaa !26
  %147 = load i32, ptr %22, align 4, !tbaa !23
  %148 = sext i32 %147 to i64
  %149 = load i64, ptr %17, align 8, !tbaa !30
  %150 = mul nsw i64 %148, %149
  %151 = load i32, ptr %23, align 4, !tbaa !23
  %152 = sext i32 %151 to i64
  %153 = add nsw i64 %150, %152
  %154 = load i32, ptr %19, align 4, !tbaa !23
  %155 = sext i32 %154 to i64
  %156 = sub nsw i64 %153, %155
  %157 = load i32, ptr %24, align 4, !tbaa !23
  %158 = sext i32 %157 to i64
  %159 = add nsw i64 %156, %158
  %160 = getelementptr inbounds i16, ptr %146, i64 %159
  %161 = load i16, ptr %160, align 2, !tbaa !36
  %162 = zext i16 %161 to i32
  %163 = mul nsw i32 %145, %162
  %164 = load i32, ptr %27, align 4, !tbaa !23
  %165 = add nsw i32 %164, %163
  store i32 %165, ptr %27, align 4, !tbaa !23
  br label %166

166:                                              ; preds = %139
  %167 = load i32, ptr %24, align 4, !tbaa !23
  %168 = add nsw i32 %167, 1
  store i32 %168, ptr %24, align 4, !tbaa !23
  br label %135, !llvm.loop !78

169:                                              ; preds = %135
  %170 = load i32, ptr %27, align 4, !tbaa !23
  %171 = ashr i32 %170, 15
  %172 = trunc i32 %171 to i16
  %173 = load ptr, ptr %12, align 8, !tbaa !26
  %174 = load i32, ptr %22, align 4, !tbaa !23
  %175 = sext i32 %174 to i64
  %176 = load i64, ptr %18, align 8, !tbaa !30
  %177 = mul nsw i64 %175, %176
  %178 = load i32, ptr %23, align 4, !tbaa !23
  %179 = sext i32 %178 to i64
  %180 = add nsw i64 %177, %179
  %181 = getelementptr inbounds i16, ptr %173, i64 %180
  store i16 %172, ptr %181, align 2, !tbaa !36
  call void @llvm.lifetime.end.p0(i64 4, ptr %27) #10
  br label %182

182:                                              ; preds = %169
  %183 = load i32, ptr %23, align 4, !tbaa !23
  %184 = add nsw i32 %183, 1
  store i32 %184, ptr %23, align 4, !tbaa !23
  br label %130, !llvm.loop !79

185:                                              ; preds = %130
  %186 = load i32, ptr %21, align 4, !tbaa !23
  store i32 %186, ptr %23, align 4, !tbaa !23
  br label %187

187:                                              ; preds = %265, %185
  %188 = load i32, ptr %23, align 4, !tbaa !23
  %189 = load i32, ptr %13, align 4, !tbaa !23
  %190 = icmp slt i32 %188, %189
  br i1 %190, label %191, label %268

191:                                              ; preds = %187
  call void @llvm.lifetime.start.p0(i64 4, ptr %28) #10
  store i32 0, ptr %28, align 4, !tbaa !23
  store i32 0, ptr %24, align 4, !tbaa !23
  br label %192

192:                                              ; preds = %249, %191
  %193 = load i32, ptr %24, align 4, !tbaa !23
  %194 = load i32, ptr %10, align 4, !tbaa !23
  %195 = icmp slt i32 %193, %194
  br i1 %195, label %196, label %252

196:                                              ; preds = %192
  call void @llvm.lifetime.start.p0(i64 4, ptr %29) #10
  %197 = load i32, ptr %23, align 4, !tbaa !23
  %198 = load i32, ptr %19, align 4, !tbaa !23
  %199 = sub nsw i32 %197, %198
  %200 = load i32, ptr %24, align 4, !tbaa !23
  %201 = add nsw i32 %199, %200
  %202 = icmp sge i32 %201, 0
  br i1 %202, label %203, label %209

203:                                              ; preds = %196
  %204 = load i32, ptr %23, align 4, !tbaa !23
  %205 = load i32, ptr %19, align 4, !tbaa !23
  %206 = sub nsw i32 %204, %205
  %207 = load i32, ptr %24, align 4, !tbaa !23
  %208 = add nsw i32 %206, %207
  br label %216

209:                                              ; preds = %196
  %210 = load i32, ptr %23, align 4, !tbaa !23
  %211 = load i32, ptr %19, align 4, !tbaa !23
  %212 = sub nsw i32 %210, %211
  %213 = load i32, ptr %24, align 4, !tbaa !23
  %214 = add nsw i32 %212, %213
  %215 = sub nsw i32 0, %214
  br label %216

216:                                              ; preds = %209, %203
  %217 = phi i32 [ %208, %203 ], [ %215, %209 ]
  store i32 %217, ptr %29, align 4, !tbaa !23
  %218 = load i32, ptr %29, align 4, !tbaa !23
  %219 = load i32, ptr %13, align 4, !tbaa !23
  %220 = icmp sge i32 %218, %219
  br i1 %220, label %221, label %228

221:                                              ; preds = %216
  %222 = load i32, ptr %13, align 4, !tbaa !23
  %223 = load i32, ptr %29, align 4, !tbaa !23
  %224 = load i32, ptr %13, align 4, !tbaa !23
  %225 = sub nsw i32 %223, %224
  %226 = add nsw i32 %225, 1
  %227 = sub nsw i32 %222, %226
  store i32 %227, ptr %29, align 4, !tbaa !23
  br label %228

228:                                              ; preds = %221, %216
  %229 = load ptr, ptr %9, align 8, !tbaa !26
  %230 = load i32, ptr %24, align 4, !tbaa !23
  %231 = sext i32 %230 to i64
  %232 = getelementptr inbounds i16, ptr %229, i64 %231
  %233 = load i16, ptr %232, align 2, !tbaa !36
  %234 = zext i16 %233 to i32
  %235 = load ptr, ptr %11, align 8, !tbaa !26
  %236 = load i32, ptr %22, align 4, !tbaa !23
  %237 = sext i32 %236 to i64
  %238 = load i64, ptr %17, align 8, !tbaa !30
  %239 = mul nsw i64 %237, %238
  %240 = load i32, ptr %29, align 4, !tbaa !23
  %241 = sext i32 %240 to i64
  %242 = add nsw i64 %239, %241
  %243 = getelementptr inbounds i16, ptr %235, i64 %242
  %244 = load i16, ptr %243, align 2, !tbaa !36
  %245 = zext i16 %244 to i32
  %246 = mul nsw i32 %234, %245
  %247 = load i32, ptr %28, align 4, !tbaa !23
  %248 = add nsw i32 %247, %246
  store i32 %248, ptr %28, align 4, !tbaa !23
  call void @llvm.lifetime.end.p0(i64 4, ptr %29) #10
  br label %249

249:                                              ; preds = %228
  %250 = load i32, ptr %24, align 4, !tbaa !23
  %251 = add nsw i32 %250, 1
  store i32 %251, ptr %24, align 4, !tbaa !23
  br label %192, !llvm.loop !80

252:                                              ; preds = %192
  %253 = load i32, ptr %28, align 4, !tbaa !23
  %254 = ashr i32 %253, 15
  %255 = trunc i32 %254 to i16
  %256 = load ptr, ptr %12, align 8, !tbaa !26
  %257 = load i32, ptr %22, align 4, !tbaa !23
  %258 = sext i32 %257 to i64
  %259 = load i64, ptr %18, align 8, !tbaa !30
  %260 = mul nsw i64 %258, %259
  %261 = load i32, ptr %23, align 4, !tbaa !23
  %262 = sext i32 %261 to i64
  %263 = add nsw i64 %260, %262
  %264 = getelementptr inbounds i16, ptr %256, i64 %263
  store i16 %255, ptr %264, align 2, !tbaa !36
  call void @llvm.lifetime.end.p0(i64 4, ptr %28) #10
  br label %265

265:                                              ; preds = %252
  %266 = load i32, ptr %23, align 4, !tbaa !23
  %267 = add nsw i32 %266, 1
  store i32 %267, ptr %23, align 4, !tbaa !23
  br label %187, !llvm.loop !81

268:                                              ; preds = %187
  br label %269

269:                                              ; preds = %268
  %270 = load i32, ptr %22, align 4, !tbaa !23
  %271 = add nsw i32 %270, 1
  store i32 %271, ptr %22, align 4, !tbaa !23
  br label %42, !llvm.loop !82

272:                                              ; preds = %42
  call void @llvm.lifetime.end.p0(i64 4, ptr %24) #10
  call void @llvm.lifetime.end.p0(i64 4, ptr %23) #10
  call void @llvm.lifetime.end.p0(i64 4, ptr %22) #10
  call void @llvm.lifetime.end.p0(i64 4, ptr %21) #10
  call void @llvm.lifetime.end.p0(i64 4, ptr %20) #10
  call void @llvm.lifetime.end.p0(i64 4, ptr %19) #10
  call void @llvm.lifetime.end.p0(i64 8, ptr %18) #10
  call void @llvm.lifetime.end.p0(i64 8, ptr %17) #10
  ret void
}