; Function Attrs: nofree norecurse nosync nounwind memory(argmem: readwrite) uwtable
define internal void @convolution_x(ptr noundef readonly captures(none) %0, i32 noundef %1, ptr noundef readonly captures(none) %2, ptr noundef writeonly captures(none) %3, i32 noundef %4, i32 noundef %5, i64 noundef %6, i64 noundef %7) #5 {
  %9 = lshr i64 %6, 1
  %10 = lshr i64 %7, 1
  %11 = sdiv i32 %1, 2
  %12 = icmp sgt i32 %5, 0
  br i1 %12, label %.preheader127.lr.ph, label %._crit_edge

.preheader127.lr.ph:                              ; preds = %8
  %.neg = sub i32 %11, %1
  %13 = add i32 %4, %.neg
  %14 = icmp sgt i32 %1, 1
  %15 = icmp sgt i32 %1, 0
  %reass.add120 = shl i32 %4, 1
  %16 = icmp slt i32 %11, %13
  %narrow = sub nsw i32 0, %11
  %.neg122 = sext i32 %narrow to i64
  %17 = icmp slt i32 %13, %4
  %18 = and i64 %7, -2
  %19 = sext i32 %11 to i64
  %20 = shl nsw i64 %19, 1
  %21 = xor i32 %1, -1
  %22 = add i32 %4, %21
  %23 = zext i32 %22 to i64
  %24 = shl nuw nsw i64 %23, 1
  %25 = add nuw nsw i64 %24, 2
  %26 = sext i32 %13 to i64
  %27 = shl nsw i64 %26, 1
  %28 = xor i32 %11, -1
  %29 = add i32 %1, %28
  %30 = zext i32 %29 to i64
  %31 = shl nuw nsw i64 %30, 1
  %32 = add nuw nsw i64 %31, 2
  %wide.trip.count184 = zext nneg i32 %5 to i64
  %33 = getelementptr i8, ptr %3, i64 %27
  %34 = getelementptr i8, ptr %3, i64 %20
  %wide.trip.count153 = zext nneg i32 %11 to i64
  %wide.trip.count = zext nneg i32 %1 to i64
  %invariant.gep = getelementptr i16, ptr %2, i64 %.neg122
  %wide.trip.count162 = zext nneg i32 %1 to i64
  %wide.trip.count181 = sext i32 %4 to i64
  %wide.trip.count176 = zext nneg i32 %1 to i64
  br label %.preheader127

.preheader127:                                    ; preds = %.preheader127.lr.ph, %._crit_edge139
  %indvar = phi i64 [ 0, %.preheader127.lr.ph ], [ %indvar.next, %._crit_edge139 ]
  %35 = mul i64 %18, %indvar
  %scevgep169 = getelementptr i8, ptr %33, i64 %35
  %scevgep155 = getelementptr i8, ptr %34, i64 %35
  br i1 %14, label %.preheader124.us.preheader, label %.preheader126

.preheader124.us.preheader:                       ; preds = %.preheader127
  %36 = mul nuw nsw i64 %9, %indvar
  %37 = getelementptr i16, ptr %2, i64 %36
  %38 = mul nuw nsw i64 %10, %indvar
  %39 = getelementptr inbounds nuw i16, ptr %3, i64 %38
  br label %.preheader124.us

.preheader124.us:                                 ; preds = %.preheader124.us.preheader, %._crit_edge.us
  %indvars.iv150 = phi i64 [ 0, %.preheader124.us.preheader ], [ %indvars.iv.next151, %._crit_edge.us ]
  %40 = trunc i64 %indvars.iv150 to i32
  %41 = sub i32 %40, %11
  br label %42

42:                                               ; preds = %.preheader124.us, %42
  %indvars.iv = phi i64 [ 0, %.preheader124.us ], [ %indvars.iv.next, %42 ]
  %.098129.us = phi i32 [ 0, %.preheader124.us ], [ %56, %42 ]
  %43 = trunc nuw nsw i64 %indvars.iv to i32
  %44 = add nsw i32 %41, %43
  %45 = tail call i32 @llvm.abs.i32(i32 %44, i1 true)
  %.not118.us = icmp slt i32 %45, %4
  %46 = xor i32 %45, -1
  %47 = add i32 %reass.add120, %46
  %.097.us = select i1 %.not118.us, i32 %45, i32 %47
  %48 = getelementptr inbounds nuw i16, ptr %0, i64 %indvars.iv
  %49 = load i16, ptr %48, align 2, !tbaa !28
  %50 = zext i16 %49 to i32
  %51 = sext i32 %.097.us to i64
  %52 = getelementptr i16, ptr %37, i64 %51
  %53 = load i16, ptr %52, align 2, !tbaa !28
  %54 = zext i16 %53 to i32
  %55 = mul nuw nsw i32 %54, %50
  %56 = add nuw nsw i32 %55, %.098129.us
  %indvars.iv.next = add nuw nsw i64 %indvars.iv, 1
  %exitcond.not = icmp eq i64 %indvars.iv.next, %wide.trip.count
  br i1 %exitcond.not, label %._crit_edge.us, label %42, !llvm.loop !60

._crit_edge.us:                                   ; preds = %42
  %57 = lshr i32 %56, 15
  %58 = trunc nuw i32 %57 to i16
  %59 = getelementptr inbounds nuw i16, ptr %39, i64 %indvars.iv150
  store i16 %58, ptr %59, align 2, !tbaa !28
  %indvars.iv.next151 = add nuw nsw i64 %indvars.iv150, 1
  %exitcond154.not = icmp eq i64 %indvars.iv.next151, %wide.trip.count153
  br i1 %exitcond154.not, label %.preheader126, label %.preheader124.us, !llvm.loop !61

.preheader126:                                    ; preds = %._crit_edge.us, %.preheader127
  br i1 %16, label %.preheader123.lr.ph, label %.preheader125

.preheader123.lr.ph:                              ; preds = %.preheader126
  %60 = mul nuw nsw i64 %10, %indvar
  %61 = getelementptr i16, ptr %3, i64 %60
  br i1 %15, label %.preheader123.us.preheader, label %.preheader125.thread

.preheader123.us.preheader:                       ; preds = %.preheader123.lr.ph
  %62 = mul nuw nsw i64 %9, %indvar
  %gep = getelementptr i16, ptr %invariant.gep, i64 %62
  br label %.preheader123.us

.preheader123.us:                                 ; preds = %.preheader123.us.preheader, %._crit_edge.us134
  %indvars.iv164 = phi i64 [ %19, %.preheader123.us.preheader ], [ %indvars.iv.next165, %._crit_edge.us134 ]
  %63 = getelementptr i16, ptr %gep, i64 %indvars.iv164
  br label %64

64:                                               ; preds = %.preheader123.us, %64
  %indvars.iv159 = phi i64 [ 0, %.preheader123.us ], [ %indvars.iv.next160, %64 ]
  %.096132.us = phi i32 [ 0, %.preheader123.us ], [ %72, %64 ]
  %65 = getelementptr inbounds nuw i16, ptr %0, i64 %indvars.iv159
  %66 = load i16, ptr %65, align 2, !tbaa !28
  %67 = zext i16 %66 to i32
  %68 = getelementptr i16, ptr %63, i64 %indvars.iv159
  %69 = load i16, ptr %68, align 2, !tbaa !28
  %70 = zext i16 %69 to i32
  %71 = mul nuw nsw i32 %70, %67
  %72 = add nuw nsw i32 %71, %.096132.us
  %indvars.iv.next160 = add nuw nsw i64 %indvars.iv159, 1
  %exitcond163.not = icmp eq i64 %indvars.iv.next160, %wide.trip.count162
  br i1 %exitcond163.not, label %._crit_edge.us134, label %64, !llvm.loop !62

._crit_edge.us134:                                ; preds = %64
  %73 = lshr i32 %72, 15
  %74 = trunc nuw i32 %73 to i16
  %75 = getelementptr i16, ptr %61, i64 %indvars.iv164
  store i16 %74, ptr %75, align 2, !tbaa !28
  %indvars.iv.next165 = add nuw nsw i64 %indvars.iv164, 1
  %exitcond168.not = icmp eq i64 %indvars.iv.next165, %26
  br i1 %exitcond168.not, label %.preheader125, label %.preheader123.us, !llvm.loop !63

.preheader125:                                    ; preds = %._crit_edge.us134, %.preheader126
  br i1 %17, label %.preheader.lr.ph, label %._crit_edge139

.preheader125.thread:                             ; preds = %.preheader123.lr.ph
  tail call void @llvm.memset.p0.i64(ptr noundef nonnull align 2 dereferenceable(1) %scevgep155, i8 0, i64 %25, i1 false), !tbaa !28
  br i1 %17, label %.preheader.preheader, label %._crit_edge139

.preheader.lr.ph:                                 ; preds = %.preheader125
  %76 = mul nuw nsw i64 %9, %indvar
  %77 = getelementptr i16, ptr %2, i64 %76
  %78 = mul nuw nsw i64 %10, %indvar
  %79 = getelementptr i16, ptr %3, i64 %78
  br i1 %15, label %.preheader.us, label %.preheader.preheader

.preheader.preheader:                             ; preds = %.preheader125.thread, %.preheader.lr.ph
  tail call void @llvm.memset.p0.i64(ptr noundef nonnull align 2 dereferenceable(1) %scevgep169, i8 0, i64 %32, i1 false), !tbaa !28
  br label %._crit_edge139

.preheader.us:                                    ; preds = %.preheader.lr.ph, %._crit_edge.us140
  %indvars.iv178 = phi i64 [ %indvars.iv.next179, %._crit_edge.us140 ], [ %26, %.preheader.lr.ph ]
  %80 = trunc nsw i64 %indvars.iv178 to i32
  %81 = sub i32 %80, %11
  br label %82

82:                                               ; preds = %.preheader.us, %82
  %indvars.iv173 = phi i64 [ 0, %.preheader.us ], [ %indvars.iv.next174, %82 ]
  %.095137.us = phi i32 [ 0, %.preheader.us ], [ %96, %82 ]
  %83 = trunc i64 %indvars.iv173 to i32
  %84 = add i32 %81, %83
  %85 = tail call i32 @llvm.abs.i32(i32 %84, i1 true)
  %.not.us = icmp slt i32 %85, %4
  %86 = xor i32 %85, -1
  %87 = add i32 %reass.add120, %86
  %.0.us = select i1 %.not.us, i32 %85, i32 %87
  %88 = getelementptr inbounds nuw i16, ptr %0, i64 %indvars.iv173
  %89 = load i16, ptr %88, align 2, !tbaa !28
  %90 = zext i16 %89 to i32
  %91 = sext i32 %.0.us to i64
  %92 = getelementptr i16, ptr %77, i64 %91
  %93 = load i16, ptr %92, align 2, !tbaa !28
  %94 = zext i16 %93 to i32
  %95 = mul nuw nsw i32 %94, %90
  %96 = add nuw nsw i32 %95, %.095137.us
  %indvars.iv.next174 = add nuw nsw i64 %indvars.iv173, 1
  %exitcond177.not = icmp eq i64 %indvars.iv.next174, %wide.trip.count176
  br i1 %exitcond177.not, label %._crit_edge.us140, label %82, !llvm.loop !64

._crit_edge.us140:                                ; preds = %82
  %97 = lshr i32 %96, 15
  %98 = trunc nuw i32 %97 to i16
  %99 = getelementptr i16, ptr %79, i64 %indvars.iv178
  store i16 %98, ptr %99, align 2, !tbaa !28
  %indvars.iv.next179 = add nsw i64 %indvars.iv178, 1
  %exitcond182.not = icmp eq i64 %indvars.iv.next179, %wide.trip.count181
  br i1 %exitcond182.not, label %._crit_edge139, label %.preheader.us, !llvm.loop !65

._crit_edge139:                                   ; preds = %._crit_edge.us140, %.preheader125.thread, %.preheader.preheader, %.preheader125
  %indvar.next = add nuw nsw i64 %indvar, 1
  %exitcond185.not = icmp eq i64 %indvar.next, %wide.trip.count184
  br i1 %exitcond185.not, label %._crit_edge, label %.preheader127, !llvm.loop !66

._crit_edge:                                      ; preds = %._crit_edge139, %8
  ret void
}